(dp1
S'OriginalConfig'
p2
ccopy_reg
_reconstructor
p3
(cWMCore.Configuration
Configuration
p4
c__builtin__
object
p5
NtRp6
(dp7
S'Site'
p8
g3
(cWMCore.Configuration
ConfigSection
p9
g5
NtRp10
(dp11
S'_internal_skipChecks'
p12
I00
sS'_internal_documentation'
p13
S''
sS'_internal_settings'
p14
c__builtin__
set
p15
((lp16
S'storageSite'
p17
atRp18
sS'_internal_name'
p19
g8
sS'_internal_docstrings'
p20
(dp21
sS'_internal_children'
p22
g15
((ltRp23
sg17
S'T3_US_FNALLPC'
p24
sS'_internal_parent_ref'
p25
NsbsS'_internal_sections'
p26
(lp27
S'General'
p28
aS'JobType'
p29
aS'Data'
p30
ag8
aS'User'
p31
aS'Debug'
p32
asg28
g3
(g9
g5
NtRp33
(dp34
g12
I00
sg13
S''
sg14
g15
((lp35
S'transferOutputs'
p36
aS'transferLogs'
p37
aS'requestName'
p38
atRp39
sg19
g28
sg20
(dp40
sg36
I01
sg22
g15
((ltRp41
sg38
S'TTree_13TeV_SingleMuon2017D_JpsiZUps_NoTrigger_Compact1'
p42
sg25
Nsg37
I00
sbsS'_internal_webapps'
p43
(lp44
sg31
g3
(g9
g5
NtRp45
(dp46
g12
I00
sg13
S''
sg14
g15
((ltRp47
sg19
g31
sg20
(dp48
sg22
g15
((ltRp49
sg25
NsbsS'_internal_components'
p50
(lp51
sg32
g3
(g9
g5
NtRp52
(dp53
g12
I00
sg13
S''
sg14
g15
((ltRp54
sg19
g32
sg20
(dp55
sg22
g15
((ltRp56
sg25
Nsbsg30
g3
(g9
g5
NtRp57
(dp58
S'inputDataset'
p59
S'/SingleMuon/Run2017D-17Nov2017-v1/AOD'
p60
sg12
I00
sS'splitting'
p61
S'LumiBased'
p62
sS'unitsPerJob'
p63
I50
sg13
S''
sg14
g15
((lp64
g59
aS'totalUnits'
p65
ag63
ag61
aS'inputDBS'
p66
aS'outLFNDirBase'
p67
aS'lumiMask'
p68
aS'publication'
p69
atRp70
sg19
g30
sg66
S'global'
p71
sg20
(dp72
sg22
g15
((ltRp73
sg69
I00
sg67
S'/store/user/hacharya/DataFiles/'
p74
sg25
Nsg68
S'Cert_294927-306462_13TeV_PromptReco_Collisions17_JSON_MuonPhys.txt'
p75
sg65
I-1
sbsg29
g3
(g9
g5
NtRp76
(dp77
S'outputFiles'
p78
(lp79
S'SingleMuonDatasetEtab17Nov_2017D_JpsiUpsilonZ_NoTriggered_Compact.root'
p80
asg12
I00
sg13
S''
sg14
g15
((lp81
S'psetName'
p82
aS'pluginName'
p83
ag78
aS'allowUndistributedCMSSW'
p84
atRp85
sg19
g29
sg20
(dp86
sg83
S'Analysis'
p87
sg22
g15
((ltRp88
sg84
I01
sg82
S'makeRealPATEvents_cfg.py'
p89
sg25
NsbsbsS'voGroup'
p90
S''
sS'Server'
p91
S'cmsweb.cern.ch'
p92
sS'instance'
p93
S'prod'
p94
sS'RequestName'
p95
V191205_181045:hacharya_crab_TTree_13TeV_SingleMuon2017D_JpsiZUps_NoTrigger_Compact1
p96
sS'voRole'
p97
S'NULL'
p98
sS'Port'
p99
S''
s.